target datalayout = "e-m:e-p270:32:32-p271:32:32-p272:64:64-i64:64-i128:128-f80:128-n8:16:32:64-S128"
target triple = "x86_64-pc-linux-gnu"

%"class.testing::internal::MutexBase" = type { %union.pthread_mutex_t, i8, i64 }
%union.pthread_mutex_t = type { %struct.__pthread_mutex_s }
%struct.__pthread_mutex_s = type { i32, i32, i32, i32, i32, i16, i16, %struct.__pthread_internal_list }
%struct.__pthread_internal_list = type { ptr, ptr }
%"class.testing::internal::linked_ptr_internal" = type { ptr }
%"class.testing::internal::ParamGenerator.77" = type { %"class.testing::internal::linked_ptr.78" }
%"class.testing::internal::linked_ptr.78" = type { ptr, %"class.testing::internal::linked_ptr_internal" }
%"class.testing::internal::GTestMutexLock" = type { ptr }
%"class.testing::internal::ParamGenerator.89" = type { %"class.testing::internal::linked_ptr.90" }
%"class.testing::internal::linked_ptr.90" = type { ptr, %"class.testing::internal::linked_ptr_internal" }
%"class.testing::internal::CartesianProductGenerator2" = type { %"class.testing::internal::ParamGeneratorInterface.127", %"class.testing::internal::ParamGenerator.89", %"class.testing::internal::ParamGenerator.77" }
%"class.testing::internal::ParamGeneratorInterface.127" = type { ptr }

@_ZN7testing8internal18g_linked_ptr_mutexE = external global %"class.testing::internal::MutexBase", align 8

; Function Attrs: mustprogress nounwind uwtable
define linkonce_odr hidden void @_ZN7testing8internal14GTestMutexLockD2Ev(ptr noundef nonnull align 8 dereferenceable(8) %0) unnamed_addr #9 comdat align 2 personality ptr @__gxx_personality_v0 {
  %2 = alloca ptr, align 8
  store ptr %0, ptr %2, align 8, !tbaa !205
  %3 = load ptr, ptr %2, align 8
  %4 = getelementptr inbounds nuw %"class.testing::internal::GTestMutexLock", ptr %3, i32 0, i32 0
  %5 = load ptr, ptr %4, align 8, !tbaa !209
  invoke void @_ZN7testing8internal9MutexBase6UnlockEv(ptr noundef nonnull align 8 dereferenceable(56) %5)
          to label %6 unwind label %7

6:                                                ; preds = %1
  ret void

7:                                                ; preds = %1
  %8 = landingpad { ptr, i32 }
          catch ptr null
  %9 = extractvalue { ptr, i32 } %8, 0
  call void @__clang_call_terminate(ptr %9) #27
  unreachable
}

; Function Attrs: mustprogress uwtable
define linkonce_odr hidden void @_ZN7testing8internal14GTestMutexLockC2EPNS0_9MutexBaseE(ptr noundef nonnull align 8 dereferenceable(8) %0, ptr noundef %1) unnamed_addr #6 comdat align 2 {
  %3 = alloca ptr, align 8
  %4 = alloca ptr, align 8
  store ptr %0, ptr %3, align 8, !tbaa !205
  store ptr %1, ptr %4, align 8, !tbaa !207
  %5 = load ptr, ptr %3, align 8
  %6 = getelementptr inbounds nuw %"class.testing::internal::GTestMutexLock", ptr %5, i32 0, i32 0
  %7 = load ptr, ptr %4, align 8, !tbaa !207
  store ptr %7, ptr %6, align 8, !tbaa !209
  %8 = getelementptr inbounds nuw %"class.testing::internal::GTestMutexLock", ptr %5, i32 0, i32 0
  %9 = load ptr, ptr %8, align 8, !tbaa !209
  call void @_ZN7testing8internal9MutexBase4LockEv(ptr noundef nonnull align 8 dereferenceable(56) %9)
  ret void
}

; Function Attrs: mustprogress uwtable
define linkonce_odr hidden noundef zeroext i1 @_ZN7testing8internal19linked_ptr_internal6departEv(ptr noundef nonnull align 8 dereferenceable(8) %0) #6 comdat align 2 {
  %2 = alloca i1, align 1
  %3 = alloca ptr, align 8
  %4 = alloca %"class.testing::internal::GTestMutexLock", align 8
  %5 = alloca i32, align 4
  %6 = alloca ptr, align 8
  store ptr %0, ptr %3, align 8, !tbaa !202
  %7 = load ptr, ptr %3, align 8
  call void @llvm.lifetime.start.p0(i64 8, ptr %4) #3
  call void @_ZN7testing8internal14GTestMutexLockC2EPNS0_9MutexBaseE(ptr noundef nonnull align 8 dereferenceable(8) %4, ptr noundef @_ZN7testing8internal18g_linked_ptr_mutexE)
  %8 = getelementptr inbounds nuw %"class.testing::internal::linked_ptr_internal", ptr %7, i32 0, i32 0
  %9 = load ptr, ptr %8, align 8, !tbaa !203
  %10 = icmp eq ptr %9, %7
  br i1 %10, label %11, label %12

11:                                               ; preds = %1
  store i1 true, ptr %2, align 1
  store i32 1, ptr %5, align 4
  br label %29

12:                                               ; preds = %1
  call void @llvm.lifetime.start.p0(i64 8, ptr %6) #3
  %13 = getelementptr inbounds nuw %"class.testing::internal::linked_ptr_internal", ptr %7, i32 0, i32 0
  %14 = load ptr, ptr %13, align 8, !tbaa !203
  store ptr %14, ptr %6, align 8, !tbaa !202
  br label %15

15:                                               ; preds = %20, %12
  %16 = load ptr, ptr %6, align 8, !tbaa !202
  %17 = getelementptr inbounds nuw %"class.testing::internal::linked_ptr_internal", ptr %16, i32 0, i32 0
  %18 = load ptr, ptr %17, align 8, !tbaa !203
  %19 = icmp ne ptr %18, %7
  br i1 %19, label %20, label %24

20:                                               ; preds = %15
  %21 = load ptr, ptr %6, align 8, !tbaa !202
  %22 = getelementptr inbounds nuw %"class.testing::internal::linked_ptr_internal", ptr %21, i32 0, i32 0
  %23 = load ptr, ptr %22, align 8, !tbaa !203
  store ptr %23, ptr %6, align 8, !tbaa !202
  br label %15, !llvm.loop !246

24:                                               ; preds = %15
  %25 = getelementptr inbounds nuw %"class.testing::internal::linked_ptr_internal", ptr %7, i32 0, i32 0
  %26 = load ptr, ptr %25, align 8, !tbaa !203
  %27 = load ptr, ptr %6, align 8, !tbaa !202
  %28 = getelementptr inbounds nuw %"class.testing::internal::linked_ptr_internal", ptr %27, i32 0, i32 0
  store ptr %26, ptr %28, align 8, !tbaa !203
  store i1 false, ptr %2, align 1
  store i32 1, ptr %5, align 4
  call void @llvm.lifetime.end.p0(i64 8, ptr %6) #3
  br label %29

29:                                               ; preds = %24, %11
  call void @_ZN7testing8internal14GTestMutexLockD2Ev(ptr noundef nonnull align 8 dereferenceable(8) %4) #3
  call void @llvm.lifetime.end.p0(i64 8, ptr %4) #3
  %30 = load i1, ptr %2, align 1
  ret i1 %30
}

; Function Attrs: mustprogress uwtable
define internal void @_ZN7testing8internal10linked_ptrIKNS0_23ParamGeneratorInterfaceIN11opencv_test12_GLOBAL__N_18NormTypeEEEE6departEv(ptr noundef nonnull align 8 dereferenceable(16) %0) #6 align 2 {
  %2 = alloca ptr, align 8
  store ptr %0, ptr %2, align 8, !tbaa !424
  %3 = load ptr, ptr %2, align 8
  %4 = getelementptr inbounds nuw %"class.testing::internal::linked_ptr.90", ptr %3, i32 0, i32 1
  %5 = call noundef zeroext i1 @_ZN7testing8internal19linked_ptr_internal6departEv(ptr noundef nonnull align 8 dereferenceable(8) %4)
  br i1 %5, label %6, label %15

6:                                                ; preds = %1
  %7 = getelementptr inbounds nuw %"class.testing::internal::linked_ptr.90", ptr %3, i32 0, i32 0
  %8 = load ptr, ptr %7, align 8, !tbaa !426
  %9 = icmp eq ptr %8, null
  br i1 %9, label %14, label %10

10:                                               ; preds = %6
  %11 = load ptr, ptr %8, align 8, !tbaa !20
  %12 = getelementptr inbounds ptr, ptr %11, i64 1
  %13 = load ptr, ptr %12, align 8
  call void %13(ptr noundef nonnull align 8 dereferenceable(8) %8) #3
  br label %14

14:                                               ; preds = %10, %6
  br label %15

15:                                               ; preds = %14, %1
  ret void
}

; Function Attrs: mustprogress uwtable
define linkonce_odr hidden void @_ZN7testing8internal10linked_ptrIKNS0_23ParamGeneratorInterfaceIbEEE6departEv(ptr noundef nonnull align 8 dereferenceable(16) %0) #6 comdat align 2 {
  %2 = alloca ptr, align 8
  store ptr %0, ptr %2, align 8, !tbaa !296
  %3 = load ptr, ptr %2, align 8
  %4 = getelementptr inbounds nuw %"class.testing::internal::linked_ptr.78", ptr %3, i32 0, i32 1
  %5 = call noundef zeroext i1 @_ZN7testing8internal19linked_ptr_internal6departEv(ptr noundef nonnull align 8 dereferenceable(8) %4)
  br i1 %5, label %6, label %15

6:                                                ; preds = %1
  %7 = getelementptr inbounds nuw %"class.testing::internal::linked_ptr.78", ptr %3, i32 0, i32 0
  %8 = load ptr, ptr %7, align 8, !tbaa !298
  %9 = icmp eq ptr %8, null
  br i1 %9, label %14, label %10

10:                                               ; preds = %6
  %11 = load ptr, ptr %8, align 8, !tbaa !20
  %12 = getelementptr inbounds ptr, ptr %11, i64 1
  %13 = load ptr, ptr %12, align 8
  call void %13(ptr noundef nonnull align 8 dereferenceable(8) %8) #3
  br label %14

14:                                               ; preds = %10, %6
  br label %15

15:                                               ; preds = %14, %1
  ret void
}

; Function Attrs: mustprogress nounwind uwtable
define internal void @_ZN7testing8internal10linked_ptrIKNS0_23ParamGeneratorInterfaceIN11opencv_test12_GLOBAL__N_18NormTypeEEEED2Ev(ptr noundef nonnull align 8 dereferenceable(16) %0) unnamed_addr #9 align 2 personality ptr @__gxx_personality_v0 {
  %2 = alloca ptr, align 8
  store ptr %0, ptr %2, align 8, !tbaa !424
  %3 = load ptr, ptr %2, align 8
  invoke void @_ZN7testing8internal10linked_ptrIKNS0_23ParamGeneratorInterfaceIN11opencv_test12_GLOBAL__N_18NormTypeEEEE6departEv(ptr noundef nonnull align 8 dereferenceable(16) %3)
          to label %4 unwind label %5

4:                                                ; preds = %1
  ret void

5:                                                ; preds = %1
  %6 = landingpad { ptr, i32 }
          catch ptr null
  %7 = extractvalue { ptr, i32 } %6, 0
  call void @__clang_call_terminate(ptr %7) #27
  unreachable
}

; Function Attrs: mustprogress nounwind uwtable
define linkonce_odr hidden void @_ZN7testing8internal10linked_ptrIKNS0_23ParamGeneratorInterfaceIbEEED2Ev(ptr noundef nonnull align 8 dereferenceable(16) %0) unnamed_addr #9 comdat align 2 personality ptr @__gxx_personality_v0 {
  %2 = alloca ptr, align 8
  store ptr %0, ptr %2, align 8, !tbaa !296
  %3 = load ptr, ptr %2, align 8
  invoke void @_ZN7testing8internal10linked_ptrIKNS0_23ParamGeneratorInterfaceIbEEE6departEv(ptr noundef nonnull align 8 dereferenceable(16) %3)
          to label %4 unwind label %5

4:                                                ; preds = %1
  ret void

5:                                                ; preds = %1
  %6 = landingpad { ptr, i32 }
          catch ptr null
  %7 = extractvalue { ptr, i32 } %6, 0
  call void @__clang_call_terminate(ptr %7) #27
  unreachable
}

; Function Attrs: mustprogress nounwind uwtable
define internal void @_ZN7testing8internal23ParamGeneratorInterfaceISt5tupleIJN11opencv_test12_GLOBAL__N_18NormTypeEbEEED2Ev(ptr noundef nonnull align 8 dereferenceable(8) %0) unnamed_addr #9 align 2 {
  %2 = alloca ptr, align 8
  store ptr %0, ptr %2, align 8, !tbaa !574
  ret void
}

; Function Attrs: inlinehint mustprogress nounwind uwtable
define internal void @_ZN7testing8internal14ParamGeneratorIN11opencv_test12_GLOBAL__N_18NormTypeEED2Ev(ptr noundef nonnull align 8 dereferenceable(16) %0) unnamed_addr #4 align 2 {
  %2 = alloca ptr, align 8
  store ptr %0, ptr %2, align 8, !tbaa !377
  %3 = load ptr, ptr %2, align 8
  %4 = getelementptr inbounds nuw %"class.testing::internal::ParamGenerator.89", ptr %3, i32 0, i32 0
  call void @_ZN7testing8internal10linked_ptrIKNS0_23ParamGeneratorInterfaceIN11opencv_test12_GLOBAL__N_18NormTypeEEEED2Ev(ptr noundef nonnull align 8 dereferenceable(16) %4) #3
  ret void
}

; Function Attrs: inlinehint mustprogress nounwind uwtable
define linkonce_odr hidden void @_ZN7testing8internal14ParamGeneratorIbED2Ev(ptr noundef nonnull align 8 dereferenceable(16) %0) unnamed_addr #4 comdat align 2 {
  %2 = alloca ptr, align 8
  store ptr %0, ptr %2, align 8, !tbaa !289
  %3 = load ptr, ptr %2, align 8
  %4 = getelementptr inbounds nuw %"class.testing::internal::ParamGenerator.77", ptr %3, i32 0, i32 0
  call void @_ZN7testing8internal10linked_ptrIKNS0_23ParamGeneratorInterfaceIbEEED2Ev(ptr noundef nonnull align 8 dereferenceable(16) %4) #3
  ret void
}

; Function Attrs: mustprogress nounwind uwtable
define internal void @_ZN7testing8internal26CartesianProductGenerator2IN11opencv_test12_GLOBAL__N_18NormTypeEbED2Ev(ptr noundef nonnull align 8 dereferenceable(40) %0) unnamed_addr #9 align 2 {
  %2 = alloca ptr, align 8
  store ptr %0, ptr %2, align 8, !tbaa !570
  %3 = load ptr, ptr %2, align 8
  store ptr getelementptr inbounds inrange(-16, 32) ({ [6 x ptr] }, ptr @_ZTVN7testing8internal26CartesianProductGenerator2IN11opencv_test12_GLOBAL__N_18NormTypeEbEE, i32 0, i32 0, i32 2), ptr %3, align 8, !tbaa !20
  %4 = getelementptr inbounds nuw %"class.testing::internal::CartesianProductGenerator2", ptr %3, i32 0, i32 2
  call void @_ZN7testing8internal14ParamGeneratorIbED2Ev(ptr noundef nonnull align 8 dereferenceable(16) %4) #3
  %5 = getelementptr inbounds nuw %"class.testing::internal::CartesianProductGenerator2", ptr %3, i32 0, i32 1
  call void @_ZN7testing8internal14ParamGeneratorIN11opencv_test12_GLOBAL__N_18NormTypeEED2Ev(ptr noundef nonnull align 8 dereferenceable(16) %5) #3
  call void @_ZN7testing8internal23ParamGeneratorInterfaceISt5tupleIJN11opencv_test12_GLOBAL__N_18NormTypeEbEEED2Ev(ptr noundef nonnull align 8 dereferenceable(8) %3) #3
  ret void
}